; Function Attrs: mustprogress nounwind uwtable
define internal void @_ZN2cv4util7variantIJNS0_9monostateEPKSt6vectorIN6custom12_GLOBAL__N_14FaceESaIS6_EEPS8_S8_EE6dtor_hIS8_E4helpEPNSt15aligned_storageILm24ELm8EE4typeE(ptr noundef readonly captures(none) %0) #5 align 2 personality ptr @__gxx_personality_v0 {
  %.val = load ptr, ptr %0, align 8
  %.not.i.i.i = icmp eq ptr %.val, null
  br i1 %.not.i.i.i, label %_ZNSt6vectorIN6custom12_GLOBAL__N_14FaceESaIS2_EED2Ev.exit, label %2

2:                                                ; preds = %1
  tail call void @_ZdlPv(ptr noundef nonnull %.val) #36
  br label %_ZNSt6vectorIN6custom12_GLOBAL__N_14FaceESaIS2_EED2Ev.exit

_ZNSt6vectorIN6custom12_GLOBAL__N_14FaceESaIS2_EED2Ev.exit: ; preds = %1, %2
  ret void
}